; Function Attrs: inlinehint mustprogress nounwind uwtable
define internal fastcc void @_ZN12_GLOBAL__N_119mutate_once_queue_tIN5Yosys5RTLIL8IdStringENS_14mutate_queue_tEED2Ev(ptr noundef nonnull readonly align 8 captures(none) dereferenceable(56) %0) unnamed_addr #4 align 2 personality ptr @__gxx_personality_v0 {
  %2 = getelementptr inbounds nuw i8, ptr %0, i64 24
  tail call fastcc void @_ZNSt6vectorIN5Yosys7hashlib4dictINS0_5RTLIL8IdStringEN12_GLOBAL__N_114mutate_queue_tENS1_8hash_opsIS4_EEE7entry_tESaISA_EED2Ev(ptr noundef nonnull readonly align 8 dereferenceable(24) %2) #30
  %3 = load ptr, ptr %0, align 8, !tbaa !62
  %.not.i.i.i.i = icmp eq ptr %3, null
  br i1 %.not.i.i.i.i, label %_ZN5Yosys7hashlib4dictINS_5RTLIL8IdStringEN12_GLOBAL__N_114mutate_queue_tENS0_8hash_opsIS3_EEED2Ev.exit, label %4

4:                                                ; preds = %1
  %5 = getelementptr inbounds nuw i8, ptr %0, i64 16
  %6 = load ptr, ptr %5, align 8, !tbaa !195
  %7 = ptrtoint ptr %6 to i64
  %8 = ptrtoint ptr %3 to i64
  %9 = sub i64 %7, %8
  tail call void @_ZdlPvm(ptr noundef nonnull %3, i64 noundef %9) #31
  br label %_ZN5Yosys7hashlib4dictINS_5RTLIL8IdStringEN12_GLOBAL__N_114mutate_queue_tENS0_8hash_opsIS3_EEED2Ev.exit

_ZN5Yosys7hashlib4dictINS_5RTLIL8IdStringEN12_GLOBAL__N_114mutate_queue_tENS0_8hash_opsIS3_EEED2Ev.exit: ; preds = %1, %4
  ret void
}